; Function Attrs: nounwind uwtable
define void @Abc_FrameMiniAigSetAndGateDelay(ptr noundef %0, i32 noundef %1) local_unnamed_addr #4 {
  %3 = icmp eq ptr %0, null
  br i1 %3, label %4, label %5

4:                                                ; preds = %2
  %puts = tail call i32 @puts(ptr nonnull dereferenceable(1) @str.12)
  br label %5

5:                                                ; preds = %4, %2
  %6 = tail call ptr @Abc_FrameReadGia(ptr noundef %0) #27
  %7 = icmp eq ptr %6, null
  br i1 %7, label %8, label %9

8:                                                ; preds = %5
  %puts4 = tail call i32 @puts(ptr nonnull dereferenceable(1) @str.13)
  br label %9

9:                                                ; preds = %8, %5
  %10 = getelementptr inbounds nuw i8, ptr %6, i64 592
  store i32 %1, ptr %10, align 8, !tbaa !290
  ret void
}